(lp0
S'empty'
p1
aS'empty'
p2
aS'15cm_0'
p3
aS'30cm_0'
p4
aS'45cm_0'
p5
aS'15cm_r'
p6
aS'45cm_r'
p7
aS'15cm_l'
p8
aS'45cm_l'
p9
aS'empty'
p10
aS'empty'
p11
aS'empty'
p12
aS'empty'
p13
aS'15cm_0'
p14
aS'30cm_0'
p15
aS'45cm_0'
p16
aS'empty'
p17
aS'15cm_0'
p18
aS'15cm_l'
p19
aS'30cm_r'
p20
aS'30cm_l'
p21
aS'15cm_r'
p22
aS'45cm_0'
p23
aS'45cm_0'
p24
aS'30cm_0'
p25
aS'30cm_l'
p26
aS'15cm_l'
p27
aS'15cm_r'
p28
aS'30cm_r'
p29
aS'15cm_r'
p30
aS'empty'
p31
aS'45_l'
p32
aS'30_l'
p33
aS'empty'
p34
aS'45_0'
p35
aS'45_0'
p36
aS'30_0'
p37
aS'30_l'
p38
aS'30_r'
p39
aS'15_r'
p40
aS'15_l'
p41
aS'30_l'
p42
aS'45_l'
p43
aS'45_0'
p44
aS'15_0'
p45
aS'45_r'
p46
aS'45_0'
p47
aS'45_0'
p48
aS'45_0'
p49
aS'15_0'
p50
aS'empty'
p51
aS'empty'
p52
aS'empty'
p53
aS'30_0'
p54
aS'15_r'
p55
aS'30_r'
p56
aS'15_l'
p57
aS'30_l'
p58
aS'30_0'
p59
a.