(lp0
ccopy_reg
_reconstructor
p1
(csensor_msgs.msg._LaserScan
LaserScan
p2
c__builtin__
object
p3
Ntp4
Rp5
(lp6
g1
(cstd_msgs.msg._Header
Header
p7
g3
Ntp8
Rp9
(lp10
I43370
ag1
(cgenpy.rostime
Time
p11
g3
Ntp12
Rp13
(lp14
I1494233144
aI272649963
abaS'odom'
p15
abaF0.0
aF6.2831854820251465
aF0.01745329238474369
aF2.9880000511184335e-05
aF0.0
aF0.11999999731779099
aF3.5
a(Fnan
F0.43700000643730164
F0.43299999833106995
F0.42899999022483826
F0.42500001192092896
F0.42100000381469727
Fnan
F0.414000004529953
F0.41100001335144043
F0.40799999237060547
F0.40400001406669617
F0.4020000100135803
Fnan
F0.3959999978542328
F0.39399999380111694
F0.3919999897480011
F0.38999998569488525
F0.3880000114440918
Fnan
F0.3840000033378601
F0.38199999928474426
F0.38100001215934753
F0.3799999952316284
F0.3790000081062317
Fnan
F0.3779999911785126
F0.37700000405311584
F0.37599998712539673
F0.37599998712539673
F0.37599998712539673
Fnan
F0.37599998712539673
F0.37599998712539673
F0.37599998712539673
F0.37599998712539673
F0.37700000405311584
Fnan
F0.3790000081062317
F0.3799999952316284
F0.38100001215934753
F0.38199999928474426
F0.382999986410141
Fnan
F0.38499999046325684
F0.38600000739097595
F0.3880000114440918
F0.3889999985694885
F0.39100000262260437
Fnan
F0.39500001072883606
F0.3970000147819519
F0.39899998903274536
F0.4020000100135803
F0.4050000011920929
Fnan
F0.41100001335144043
F0.414000004529953
F0.4180000126361847
F0.421999990940094
F0.4259999990463257
Fnan
F0.4339999854564667
F0.43799999356269836
F0.44200000166893005
F0.44600000977516174
F0.45100000500679016
Fnan
F0.4620000123977661
F0.46799999475479126
F0.4740000069141388
Fnan
Fnan
Fnan
Fnan
Fnan
Fnan
Fnan
Fnan
Fnan
Fnan
Fnan
Fnan
Fnan
Fnan
Fnan
Fnan
Fnan
Fnan
Fnan
Fnan
Fnan
Fnan
Fnan
Fnan
Fnan
Fnan
Fnan
Fnan
Fnan
Fnan
Fnan
Fnan
Fnan
Fnan
Fnan
Fnan
Fnan
Fnan
Fnan
Fnan
Fnan
Fnan
Fnan
Fnan
Fnan
Fnan
Fnan
Fnan
Fnan
Fnan
Fnan
Fnan
Fnan
Fnan
Fnan
Fnan
Fnan
Fnan
Fnan
Fnan
Fnan
Fnan
Fnan
Fnan
Fnan
Fnan
Fnan
Fnan
Fnan
Fnan
Fnan
Fnan
Fnan
Fnan
Fnan
Fnan
Fnan
Fnan
Fnan
Fnan
Fnan
Fnan
Fnan
Fnan
Fnan
Fnan
Fnan
Fnan
Fnan
Fnan
Fnan
Fnan
Fnan
Fnan
Fnan
Fnan
Fnan
Fnan
Fnan
Fnan
Fnan
Fnan
Fnan
Fnan
Fnan
Fnan
Fnan
Fnan
Fnan
Fnan
Fnan
Fnan
Fnan
Fnan
Fnan
Fnan
Fnan
Fnan
Fnan
Fnan
Fnan
Fnan
Fnan
Fnan
Fnan
Fnan
Fnan
Fnan
Fnan
Fnan
Fnan
Fnan
Fnan
Fnan
Fnan
Fnan
Fnan
Fnan
Fnan
Fnan
Fnan
Fnan
Fnan
Fnan
Fnan
Fnan
Fnan
Fnan
Fnan
Fnan
Fnan
Fnan
Fnan
Fnan
Fnan
Fnan
Fnan
Fnan
Fnan
Fnan
Fnan
Fnan
Fnan
Fnan
Fnan
Fnan
Fnan
Fnan
Fnan
Fnan
Fnan
Fnan
Fnan
Fnan
Fnan
Fnan
Fnan
Fnan
Fnan
Fnan
Fnan
Fnan
Fnan
Fnan
Fnan
Fnan
Fnan
Fnan
Fnan
Fnan
Fnan
Fnan
Fnan
Fnan
Fnan
Fnan
Fnan
Fnan
Fnan
Fnan
Fnan
Fnan
Fnan
Fnan
Fnan
Fnan
Fnan
Fnan
Fnan
Fnan
Fnan
Fnan
Fnan
Fnan
Fnan
Fnan
Fnan
Fnan
Fnan
Fnan
Fnan
Fnan
Fnan
Fnan
Fnan
Fnan
Fnan
Fnan
Fnan
Fnan
Fnan
Fnan
Fnan
Fnan
Fnan
Fnan
Fnan
Fnan
Fnan
Fnan
Fnan
Fnan
Fnan
Fnan
F0.1720000058412552
F0.1720000058412552
F0.16099999845027924
F0.164000004529953
Fnan
F0.16500000655651093
F0.16300000250339508
F0.16500000655651093
F0.16699999570846558
F0.1679999977350235
Fnan
F0.17100000381469727
F0.1720000058412552
Fnan
Fnan
Fnan
Fnan
Fnan
Fnan
Fnan
Fnan
Fnan
Fnan
Fnan
Fnan
Fnan
Fnan
Fnan
Fnan
Fnan
Fnan
Fnan
Fnan
Fnan
Fnan
Fnan
Fnan
Fnan
F0.49799999594688416
F0.4909999966621399
Fnan
F0.4779999852180481
F0.47099998593330383
F0.4650000035762787
F0.45899999141693115
F0.4519999921321869
tp16
a(F0.0
F4347.0
F4439.0
F4645.0
F4425.0
F4274.0
F0.0
F4053.0
F4347.0
F4220.0
F4116.0
F4141.0
F0.0
F4562.0
F4575.0
F4620.0
F4951.0
F4782.0
F0.0
F4693.0
F4407.0
F4655.0
F4623.0
F4633.0
F0.0
F4566.0
F4706.0
F4488.0
F4643.0
F4380.0
F0.0
F4746.0
F4432.0
F4477.0
F4685.0
F4522.0
F0.0
F4524.0
F4614.0
F4678.0
F4656.0
F4718.0
F0.0
F4755.0
F4733.0
F4783.0
F4574.0
F4741.0
F0.0
F4639.0
F4400.0
F4175.0
F4262.0
F4214.0
F0.0
F4130.0
F4039.0
F4214.0
F4382.0
F4557.0
F0.0
F4451.0
F4321.0
F4251.0
F3872.0
F3864.0
F0.0
F3978.0
F3857.0
F5281.0
F43.0
F116.0
F0.0
F70.0
F39.0
F38.0
F44.0
F34.0
F0.0
F0.0
F0.0
F0.0
F0.0
F0.0
F0.0
F0.0
F0.0
F0.0
F0.0
F0.0
F0.0
F0.0
F0.0
F0.0
F0.0
F0.0
F0.0
F0.0
F0.0
F0.0
F0.0
F0.0
F0.0
F0.0
F0.0
F0.0
F0.0
F0.0
F0.0
F0.0
F0.0
F0.0
F0.0
F0.0
F0.0
F0.0
F0.0
F0.0
F0.0
F0.0
F0.0
F0.0
F0.0
F0.0
F0.0
F0.0
F0.0
F0.0
F0.0
F0.0
F0.0
F0.0
F0.0
F0.0
F0.0
F0.0
F0.0
F0.0
F0.0
F0.0
F0.0
F0.0
F0.0
F0.0
F0.0
F0.0
F0.0
F0.0
F0.0
F0.0
F0.0
F0.0
F0.0
F0.0
F0.0
F0.0
F0.0
F0.0
F0.0
F0.0
F0.0
F0.0
F0.0
F0.0
F0.0
F0.0
F0.0
F0.0
F0.0
F0.0
F0.0
F0.0
F0.0
F0.0
F0.0
F0.0
F0.0
F0.0
F0.0
F0.0
F0.0
F0.0
F0.0
F0.0
F0.0
F0.0
F0.0
F0.0
F0.0
F0.0
F0.0
F0.0
F0.0
F0.0
F0.0
F0.0
F0.0
F0.0
F0.0
F0.0
F0.0
F0.0
F0.0
F0.0
F0.0
F0.0
F0.0
F0.0
F0.0
F0.0
F0.0
F0.0
F0.0
F0.0
F0.0
F0.0
F0.0
F0.0
F0.0
F0.0
F0.0
F0.0
F0.0
F0.0
F0.0
F0.0
F0.0
F0.0
F0.0
F0.0
F0.0
F0.0
F0.0
F0.0
F0.0
F0.0
F0.0
F0.0
F0.0
F0.0
F0.0
F0.0
F0.0
F0.0
F0.0
F0.0
F0.0
F0.0
F0.0
F0.0
F0.0
F0.0
F0.0
F0.0
F0.0
F0.0
F0.0
F0.0
F0.0
F0.0
F0.0
F0.0
F0.0
F0.0
F0.0
F0.0
F0.0
F0.0
F0.0
F0.0
F0.0
F2884.0
F2971.0
F2884.0
F3068.0
F3281.0
F0.0
F4843.0
F1651.0
F1396.0
F1199.0
F1082.0
F0.0
F792.0
F704.0
F159.0
F0.0
F123.0
F0.0
F1317.0
F89.0
F0.0
F0.0
F0.0
F0.0
F0.0
F0.0
F0.0
F0.0
F0.0
F0.0
F0.0
F0.0
F0.0
F0.0
F0.0
F0.0
F0.0
F0.0
F0.0
F0.0
F0.0
F0.0
F2053.0
F4083.0
F6421.0
F4001.0
F9625.0
F0.0
F7060.0
F8293.0
F9963.0
F10088.0
F9887.0
F0.0
F7696.0
F3136.0
F1538.0
F531.0
F94.0
F0.0
F0.0
F0.0
F70.0
F864.0
F1049.0
F0.0
F1568.0
F1741.0
F1975.0
F2210.0
F2786.0
F0.0
F2177.0
F2016.0
F1996.0
F283.0
F120.0
F0.0
F3452.0
F3694.0
F3739.0
F3908.0
F4070.0
F0.0
F4049.0
F4054.0
F4037.0
F3978.0
F3986.0
tp17
aba.