(lp0
(F0.0
F0.0
F0.0
F0.0
F1.1579999923706055
F1.1829999685287476
F0.0
F1.2619999647140503
F1.3480000495910645
F1.402999997138977
F1.559999942779541
F1.628999948501587
F0.0
F0.0
F0.0
F0.0
F0.0
F0.0
F0.0
F2.6010000705718994
F2.5920000076293945
F2.5889999866485596
F2.1689999103546143
F2.1540000438690186
F0.0
F2.566999912261963
F2.562000036239624
F2.549999952316284
F2.5799999237060547
F2.5460000038146973
F0.0
F2.566999912261963
F2.2049999237060547
F2.134999990463257
F2.1050000190734863
F1.2380000352859497
F0.0
F1.2450000047683716
F1.8960000276565552
F0.0
F0.0
F2.1480000019073486
F0.0
F1.940000057220459
F1.284999966621399
F1.1950000524520874
F1.1419999599456787
F0.9010000228881836
F0.0
F0.8389999866485596
F0.7580000162124634
F0.7160000205039978
F0.6990000009536743
F0.6930000185966492
F0.0
F0.6389999985694885
F0.6349999904632568
F0.6320000290870667
F0.6320000290870667
F0.6320000290870667
F0.0
F0.6000000238418579
F0.5929999947547913
F0.5929999947547913
F0.5860000252723694
F0.5830000042915344
F0.0
F0.5830000042915344
F0.5879999995231628
F0.5929999947547913
F0.597000002861023
F0.6010000109672546
F0.0
F0.6179999709129333
F0.6420000195503235
F0.0
F1.7100000381469727
F1.746999979019165
F0.0
F0.0
F1.8799999952316284
F1.8899999856948853
F1.9170000553131104
F2.0220000743865967
F0.0
F2.1470000743865967
F0.0
F0.0
F0.0
F0.0
F0.0
F0.0
F0.0
F0.0
F0.0
F0.0
F0.0
F0.0
F3.8970000743865967
F3.822999954223633
F3.936000108718872
F3.8420000076293945
F0.0
F0.0
F0.0
F0.0
F3.375
F0.0
F0.0
F0.0
F3.377000093460083
F0.0
F3.2100000381469727
F3.7100000381469727
F0.0
F0.0
F0.0
F0.0
F0.0
F0.0
F0.0
F1.1009999513626099
F1.1510000228881836
F0.0
F0.871999979019165
F0.8920000195503235
F0.0
F0.9070000052452087
F0.9129999876022339
F0.9089999794960022
F0.9129999876022339
F0.9150000214576721
F0.0
F0.9110000133514404
F0.9269999861717224
F0.9369999766349792
F0.9390000104904175
F0.9459999799728394
F0.0
F0.9430000185966492
F0.9470000267028809
F0.9570000171661377
F0.9710000157356262
F0.972000002861023
F0.0
F0.9860000014305115
F0.9869999885559082
F0.9879999756813049
F1.0369999408721924
F1.0490000247955322
F0.0
F1.0829999446868896
F1.0750000476837158
F1.0820000171661377
F1.090999960899353
F1.1059999465942383
F0.0
F1.1260000467300415
F1.4459999799728394
F1.4600000381469727
F1.4600000381469727
F1.465000033378601
F0.0
F1.5010000467300415
F0.0
F0.0
F0.0
F0.0
F0.0
F0.0
F0.0
F0.0
F0.0
F0.0
F0.0
F0.0
F0.0
F3.430999994277954
F3.4030001163482666
F2.555999994277954
F0.0
F0.0
F2.9019999504089355
F3.052999973297119
F0.0
F0.0
F0.0
F0.0
F0.0
F0.0
F0.0
F0.0
F0.0
F0.7509999871253967
F0.7440000176429749
F0.734000027179718
F0.7250000238418579
F0.6589999794960022
F0.0
F0.7070000171661377
F0.7009999752044678
F0.699999988079071
F0.6899999976158142
F0.6899999976158142
F0.0
F0.6809999942779541
F0.7480000257492065
F0.7400000095367432
F0.7319999933242798
F0.7360000014305115
F0.0
F0.7250000238418579
F0.7210000157356262
F0.6579999923706055
F0.7139999866485596
F0.7110000252723694
F0.0
F0.7170000076293945
F0.7170000076293945
F0.722000002861023
F0.7279999852180481
F0.7200000286102295
F0.0
F0.7120000123977661
F0.777999997138977
F0.7639999985694885
F0.7509999871253967
F0.8320000171661377
F0.0
F0.7850000262260437
F0.7059999704360962
F0.0
F0.0
F0.0
F0.0
F0.0
F0.0
F0.0
F0.0
F0.8450000286102295
F0.0
F0.859000027179718
F0.8450000286102295
F0.8529999852180481
F0.8690000176429749
F0.8840000033378601
F0.0
F0.9259999990463257
F0.9350000023841858
F0.0
F0.0
F0.0
F0.0
F0.0
F0.0
F0.0
F0.0
F0.0
F0.0
F0.0
F0.6359999775886536
F0.6359999775886536
F0.6399999856948853
F0.6349999904632568
F0.0
F0.621999979019165
F0.6169999837875366
F0.6140000224113464
F0.609000027179718
F0.6039999723434448
F0.0
F0.5950000286102295
F0.5910000205039978
F0.5870000123977661
F0.5839999914169312
F0.5809999704360962
F0.0
F0.6259999871253967
F0.1850000023841858
F0.0
F0.1809999942779541
F0.19099999964237213
F0.0
F0.19099999964237213
F0.19099999964237213
F0.19200000166893005
F0.19300000369548798
F0.1940000057220459
F0.0
F0.19699999690055847
F0.19900000095367432
F0.19900000095367432
F0.0
F0.0
F0.0
F0.0
F0.0
F0.0
F0.0
F0.0
F0.0
F0.0
F0.0
F0.0
F0.0
F0.0
F0.0
F0.0
F0.0
F0.0
F0.0
F0.0
F0.0
F0.0
F0.0
F0.0
F0.0
F0.0
F0.0
F0.0
F0.0
F0.0
F0.0
F0.0
F0.0
F0.0
F0.0
F0.0
F0.0
F0.0
F0.0
F0.0
F0.0
F0.0
F0.0
F0.0
F0.0
F0.0
F0.0
F0.0
F0.0
F0.0
F0.0
F0.0
F0.0
F0.0
F0.0
F0.46799999475479126
F0.0
F0.7680000066757202
F0.7580000162124634
F0.7480000257492065
F0.0
F0.0
F0.0
F0.0
F0.0
F0.0
F0.0
F0.0
tp1
a(F0.0
F0.0
F0.0
F0.0
F0.0
F1.1349999904632568
F0.0
F1.2389999628067017
F1.3380000591278076
F1.430999994277954
F1.5199999809265137
F1.5789999961853027
F0.0
F0.0
F0.0
F0.0
F0.0
F0.0
F0.0
F2.5869998931884766
F2.578000068664551
F2.5810000896453857
F2.180000066757202
F2.1519999504089355
F0.0
F2.562999963760376
F2.559000015258789
F2.562000036239624
F2.575000047683716
F2.558000087738037
F0.0
F2.562000036239624
F2.4000000953674316
F2.1610000133514404
F2.0789999961853027
F1.8589999675750732
F0.0
F1.4190000295639038
F1.3769999742507935
F1.3760000467300415
F1.378999948501587
F1.371999979019165
F0.0
F1.3619999885559082
F1.3660000562667847
F1.3830000162124634
F1.4129999876022339
F1.4190000295639038
F0.0
F0.8730000257492065
F0.8090000152587891
F0.7599999904632568
F0.7239999771118164
F0.6919999718666077
F0.0
F0.6579999923706055
F0.6420000195503235
F0.6330000162124634
F0.6309999823570251
F0.6309999823570251
F0.0
F0.6259999871253967
F0.6029999852180481
F0.5899999737739563
F0.5920000076293945
F0.5899999737739563
F0.0
F0.5849999785423279
F0.5870000123977661
F0.5899999737739563
F0.5929999947547913
F0.597000002861023
F0.0
F0.6110000014305115
F0.6200000047683716
F0.6480000019073486
F1.8509999513626099
F1.746999979019165
F0.0
F0.0
F1.871999979019165
F1.9420000314712524
F1.9019999504089355
F1.9420000314712524
F0.0
F2.0510001182556152
F0.0
F0.0
F0.0
F0.0
F0.0
F0.0
F0.0
F0.0
F0.0
F0.0
F0.0
F0.0
F3.885999917984009
F3.8459999561309814
F3.884999990463257
F3.871000051498413
F0.0
F0.0
F0.0
F0.0
F3.3529999256134033
F3.4619998931884766
F0.0
F3.2909998893737793
F0.0
F0.0
F0.0
F3.635999917984009
F0.0
F0.0
F0.0
F0.0
F0.0
F0.0
F0.0
F1.1440000534057617
F1.1480000019073486
F0.0
F0.902999997138977
F0.902999997138977
F0.0
F0.906000018119812
F0.9110000133514404
F0.9110000133514404
F0.9150000214576721
F0.9110000133514404
F0.0
F0.9110000133514404
F0.9279999732971191
F0.9340000152587891
F0.9330000281333923
F0.9380000233650208
F0.0
F0.9539999961853027
F0.9649999737739563
F0.9810000061988831
F0.9649999737739563
F0.9779999852180481
F0.0
F1.0010000467300415
F0.9940000176429749
F0.9940000176429749
F1.003999948501587
F1.055999994277954
F0.0
F1.0720000267028809
F1.0729999542236328
F1.0870000123977661
F1.0920000076293945
F1.1059999465942383
F0.0
F1.1260000467300415
F1.4630000591278076
F1.4630000591278076
F1.4739999771118164
F1.4630000591278076
F0.0
F1.5290000438690186
F0.0
F2.4210000038146973
F0.0
F0.0
F0.0
F0.0
F0.0
F0.0
F0.0
F0.0
F0.0
F0.0
F3.50600004196167
F3.437000036239624
F3.4130001068115234
F2.5420000553131104
F0.0
F0.0
F3.0269999504089355
F3.0820000171661377
F0.0
F2.4860000610351562
F0.0
F0.0
F0.0
F0.0
F0.0
F0.0
F0.0
F0.7440000176429749
F0.7369999885559082
F0.7269999980926514
F0.7120000123977661
F0.6800000071525574
F0.0
F0.7049999833106995
F0.6990000009536743
F0.7039999961853027
F0.6980000138282776
F0.7089999914169312
F0.0
F0.7049999833106995
F0.7459999918937683
F0.7400000095367432
F0.734000027179718
F0.7260000109672546
F0.0
F0.7200000286102295
F0.7039999961853027
F0.6869999766349792
F0.7129999995231628
F0.7110000252723694
F0.0
F0.703000009059906
F0.7179999947547913
F0.722000002861023
F0.722000002861023
F0.7170000076293945
F0.0
F0.718999981880188
F0.7950000166893005
F0.7789999842643738
F0.753000020980835
F0.847000002861023
F0.0
F0.7839999794960022
F0.7120000123977661
F0.0
F0.0
F0.0
F0.0
F0.0
F0.0
F0.0
F0.0
F0.8579999804496765
F0.0
F0.8619999885559082
F0.8479999899864197
F0.8579999804496765
F0.8709999918937683
F0.8820000290870667
F0.0
F0.9120000004768372
F0.9200000166893005
F0.0
F0.0
F0.0
F0.0
F0.0
F0.0
F0.0
F0.0
F0.0
F0.0
F0.0
F0.6370000243186951
F0.6370000243186951
F0.6389999985694885
F0.6340000033378601
F0.0
F0.6200000047683716
F0.6150000095367432
F0.6129999756813049
F0.609000027179718
F0.6039999723434448
F0.0
F0.5950000286102295
F0.5910000205039978
F0.5860000252723694
F0.5830000042915344
F0.5799999833106995
F0.0
F0.625
F0.1850000023841858
F0.0
F0.18199999630451202
F0.1860000044107437
F0.0
F0.19099999964237213
F0.19099999964237213
F0.19200000166893005
F0.19300000369548798
F0.1940000057220459
F0.0
F0.19699999690055847
F0.19900000095367432
F0.0
F0.0
F0.0
F0.0
F0.0
F0.0
F0.0
F0.0
F0.0
F0.0
F0.0
F0.0
F0.0
F0.0
F0.0
F0.0
F0.0
F0.0
F0.0
F0.0
F0.0
F0.0
F0.0
F0.0
F0.0
F0.0
F0.0
F0.0
F0.0
F0.0
F0.0
F0.0
F0.0
F0.0
F0.0
F0.0
F0.0
F0.0
F0.0
F0.0
F0.0
F0.0
F0.0
F0.0
F0.0
F0.0
F0.0
F0.0
F0.0
F0.0
F0.0
F0.0
F0.0
F0.0
F0.0
F0.0
F0.46700000762939453
F0.0
F0.7689999938011169
F0.7509999871253967
F0.7329999804496765
F0.0
F0.0
F0.0
F0.0
F0.0
F0.0
F0.0
F0.0
tp2
a(F0.0
F0.0
F0.0
F0.0
F0.0
F1.1720000505447388
F0.0
F1.2599999904632568
F1.2999999523162842
F1.3960000276565552
F1.4910000562667847
F1.5750000476837158
F0.0
F0.0
F0.0
F0.0
F0.0
F0.0
F0.0
F2.5820000171661377
F2.5850000381469727
F2.563999891281128
F2.375
F2.1679999828338623
F0.0
F2.0139999389648438
F1.909000039100647
F0.0
F1.9850000143051147
F1.3660000562667847
F0.0
F1.3480000495910645
F1.343000054359436
F1.3320000171661377
F1.9579999446868896
F1.8919999599456787
F0.0
F1.4190000295639038
F1.4110000133514404
F1.36899995803833
F1.3860000371932983
F1.350000023841858
F0.0
F1.3480000495910645
F1.3639999628067017
F1.3550000190734863
F1.3630000352859497
F0.9300000071525574
F0.0
F0.8429999947547913
F0.7820000052452087
F0.7400000095367432
F0.7089999914169312
F0.6949999928474426
F0.0
F0.6389999985694885
F0.6340000033378601
F0.6299999952316284
F0.628000020980835
F0.6299999952316284
F0.0
F0.6230000257492065
F0.5849999785423279
F0.5860000252723694
F0.5879999995231628
F0.5870000123977661
F0.0
F0.5820000171661377
F0.5839999914169312
F0.5870000123977661
F0.5899999737739563
F0.593999981880188
F0.0
F0.6069999933242798
F0.6150000095367432
F0.6430000066757202
F0.0
F1.7430000305175781
F0.0
F0.0
F1.8259999752044678
F1.8619999885559082
F1.8420000076293945
F1.9299999475479126
F0.0
F2.0850000381469727
F0.0
F0.0
F0.0
F0.0
F0.0
F0.0
F0.0
F0.0
F0.0
F0.0
F0.0
F0.0
F3.869999885559082
F3.86899995803833
F3.86899995803833
F3.871999979019165
F0.0
F0.0
F0.0
F0.0
F3.302000045776367
F3.430999994277954
F0.0
F0.0
F3.3410000801086426
F0.0
F0.0
F0.0
F0.0
F0.0
F0.0
F0.0
F0.0
F0.0
F0.0
F1.2610000371932983
F1.1410000324249268
F0.8569999933242798
F0.9300000071525574
F0.9150000214576721
F0.0
F0.9079999923706055
F0.9120000004768372
F0.9160000085830688
F0.9150000214576721
F0.9200000166893005
F0.0
F0.9300000071525574
F0.9210000038146973
F0.9330000281333923
F0.9369999766349792
F0.9440000057220459
F0.0
F0.9509999752044678
F1.0010000467300415
F0.9700000286102295
F0.9700000286102295
F0.9800000190734863
F0.0
F0.9829999804496765
F0.9879999756813049
F0.9929999709129333
F1.0149999856948853
F1.0449999570846558
F0.0
F1.0729999542236328
F1.0829999446868896
F1.0820000171661377
F1.1050000190734863
F1.121000051498413
F0.0
F0.9660000205039978
F1.4600000381469727
F1.465999960899353
F1.4570000171661377
F1.4600000381469727
F0.0
F1.5110000371932983
F1.6119999885559082
F2.4609999656677246
F2.4820001125335693
F0.0
F0.0
F0.0
F0.0
F0.0
F0.0
F0.0
F0.0
F0.0
F0.0
F3.4690001010894775
F3.427999973297119
F2.5869998931884766
F0.0
F3.128999948501587
F3.066999912261963
F3.0769999027252197
F0.0
F2.438999891281128
F0.0
F0.0
F0.0
F0.0
F0.0
F0.0
F0.0
F0.7630000114440918
F0.7620000243186951
F0.746999979019165
F0.6700000166893005
F0.6859999895095825
F0.0
F0.6990000009536743
F0.7070000171661377
F0.7170000076293945
F0.7170000076293945
F0.7160000205039978
F0.0
F0.7229999899864197
F0.7279999852180481
F0.7400000095367432
F0.7379999756813049
F0.7419999837875366
F0.0
F0.7419999837875366
F0.734000027179718
F0.6600000262260437
F0.6980000138282776
F0.703000009059906
F0.0
F0.7120000123977661
F0.7049999833106995
F0.7080000042915344
F0.7070000171661377
F0.7139999866485596
F0.0
F0.7160000205039978
F0.7789999842643738
F0.7699999809265137
F0.7210000157356262
F0.8550000190734863
F0.0
F0.7950000166893005
F0.7540000081062317
F0.0
F0.0
F0.0
F0.0
F0.0
F0.0
F0.0
F0.0
F0.8619999885559082
F0.0
F0.8529999852180481
F0.8519999980926514
F0.847000002861023
F0.8659999966621399
F0.8859999775886536
F0.0
F0.8939999938011169
F0.7789999842643738
F0.0
F0.0
F0.0
F0.0
F0.0
F0.0
F0.0
F0.0
F0.0
F0.0
F0.0
F0.6290000081062317
F0.6290000081062317
F0.640999972820282
F0.6349999904632568
F0.0
F0.6200000047683716
F0.6159999966621399
F0.6150000095367432
F0.6100000143051147
F0.6050000190734863
F0.0
F0.5950000286102295
F0.5910000205039978
F0.5879999995231628
F0.5839999914169312
F0.5799999833106995
F0.0
F0.6200000047683716
F0.1860000044107437
F0.0
F0.18199999630451202
F0.1860000044107437
F0.0
F0.19099999964237213
F0.19200000166893005
F0.19200000166893005
F0.19300000369548798
F0.1940000057220459
F0.0
F0.19699999690055847
F0.1979999989271164
F0.20100000500679016
F0.0
F0.0
F0.0
F0.0
F0.0
F0.0
F0.0
F0.0
F0.0
F0.0
F0.0
F0.0
F0.0
F0.0
F0.0
F0.0
F0.0
F0.0
F0.0
F0.0
F0.0
F0.0
F0.0
F0.0
F0.0
F0.0
F0.0
F0.0
F0.0
F0.0
F0.0
F0.0
F0.0
F0.0
F0.0
F0.0
F0.0
F0.0
F0.0
F0.0
F0.0
F0.0
F0.0
F0.0
F0.0
F0.0
F0.0
F0.0
F0.0
F0.0
F0.0
F0.0
F0.0
F0.0
F0.0
F0.4790000021457672
F0.0
F0.7940000295639038
F0.7979999780654907
F0.7450000047683716
F0.0
F0.0
F0.0
F0.0
F0.0
F0.0
F0.0
F0.0
tp3
a.